target datalayout = "e-m:e-p270:32:32-p271:32:32-p272:64:64-i64:64-i128:128-f80:128-n8:16:32:64-S128"
target triple = "x86_64-pc-linux-gnu"

%struct._address = type { i32, i32, ptr, ptr }
%struct._packet_info = type { ptr, ptr, i32, i32, %struct.nstime_t, %struct.nstime_t, %struct.nstime_t, i8, ptr, ptr, ptr, ptr, %struct._address, %struct._address, %struct._address, %struct._address, %struct._address, %struct._address, i32, ptr, i8, [3 x i8], %struct.anon, i32, i32, i32, i32, ptr, i8, ptr, ptr, i16, i16, i32, i32, i16, i32, i32, ptr, ptr, ptr, i8, i8, i16, i16, i16, i32, i16, i16, ptr, ptr, ptr, ptr, ptr, i32, i32 }
%struct.nstime_t = type { i64, i32 }
%struct.anon = type { i8, [3 x i8] }

@tls_handle = internal global ptr null, align 8

; Function Attrs: null_pointer_is_valid sspstrong uwtable
define internal zeroext i1 @is_sslv2_clienthello(ptr noundef %0) #0 {
  %2 = alloca i1, align 1
  %3 = alloca ptr, align 8
  %4 = alloca i16, align 2
  %5 = alloca i32, align 4
  %6 = alloca i16, align 2
  store ptr %0, ptr %3, align 8
  %7 = load ptr, ptr %3, align 8
  %8 = call i32 @tvb_captured_length(ptr noundef %7)
  %9 = icmp ult i32 %8, 46
  br i1 %9, label %10, label %11

10:                                               ; preds = %1
  store i1 false, ptr %2, align 1
  br label %55

11:                                               ; preds = %1
  %12 = load ptr, ptr %3, align 8
  %13 = call zeroext i8 @tvb_get_uint8(ptr noundef %12, i32 noundef 0)
  %14 = zext i8 %13 to i32
  %15 = icmp ne i32 %14, 128
  br i1 %15, label %16, label %17

16:                                               ; preds = %11
  store i1 false, ptr %2, align 1
  br label %55

17:                                               ; preds = %11
  %18 = load ptr, ptr %3, align 8
  %19 = call zeroext i8 @tvb_get_uint8(ptr noundef %18, i32 noundef 2)
  %20 = zext i8 %19 to i32
  %21 = icmp ne i32 %20, 1
  br i1 %21, label %22, label %23

22:                                               ; preds = %17
  store i1 false, ptr %2, align 1
  br label %55

23:                                               ; preds = %17
  call void @llvm.lifetime.start.p0(i64 2, ptr %4) #18
  %24 = load ptr, ptr %3, align 8
  %25 = call zeroext i16 @tvb_get_ntohs(ptr noundef %24, i32 noundef 5)
  store i16 %25, ptr %4, align 2
  %26 = load i16, ptr %4, align 2
  %27 = zext i16 %26 to i32
  %28 = icmp eq i32 %27, 0
  br i1 %28, label %34, label %29

29:                                               ; preds = %23
  %30 = load i16, ptr %4, align 2
  %31 = zext i16 %30 to i32
  %32 = srem i32 %31, 3
  %33 = icmp ne i32 %32, 0
  br i1 %33, label %34, label %35

34:                                               ; preds = %29, %23
  store i1 false, ptr %2, align 1
  store i32 1, ptr %5, align 4
  br label %54

35:                                               ; preds = %29
  call void @llvm.lifetime.start.p0(i64 2, ptr %6) #18
  %36 = load ptr, ptr %3, align 8
  %37 = call zeroext i16 @tvb_get_ntohs(ptr noundef %36, i32 noundef 7)
  store i16 %37, ptr %6, align 2
  %38 = load i16, ptr %6, align 2
  %39 = zext i16 %38 to i32
  %40 = icmp ne i32 %39, 0
  br i1 %40, label %41, label %46

41:                                               ; preds = %35
  %42 = load i16, ptr %6, align 2
  %43 = zext i16 %42 to i32
  %44 = icmp ne i32 %43, 16
  br i1 %44, label %45, label %46

45:                                               ; preds = %41
  store i1 false, ptr %2, align 1
  store i32 1, ptr %5, align 4
  br label %53

46:                                               ; preds = %41, %35
  %47 = load ptr, ptr %3, align 8
  %48 = call zeroext i16 @tvb_get_ntohs(ptr noundef %47, i32 noundef 9)
  %49 = zext i16 %48 to i32
  %50 = icmp ne i32 %49, 32
  br i1 %50, label %51, label %52

51:                                               ; preds = %46
  store i1 false, ptr %2, align 1
  store i32 1, ptr %5, align 4
  br label %53

52:                                               ; preds = %46
  store i1 true, ptr %2, align 1
  store i32 1, ptr %5, align 4
  br label %53

53:                                               ; preds = %52, %51, %45
  call void @llvm.lifetime.end.p0(i64 2, ptr %6) #18
  br label %54

54:                                               ; preds = %53, %34
  call void @llvm.lifetime.end.p0(i64 2, ptr %4) #18
  br label %55

55:                                               ; preds = %54, %22, %16, %10
  %56 = load i1, ptr %2, align 1
  ret i1 %56
}

; Function Attrs: null_pointer_is_valid sspstrong uwtable
define internal zeroext i1 @is_sslv3_or_tls(ptr noundef %0) #0 {
  %2 = alloca i1, align 1
  %3 = alloca ptr, align 8
  %4 = alloca i8, align 1
  %5 = alloca i16, align 2
  %6 = alloca i16, align 2
  %7 = alloca i32, align 4
  store ptr %0, ptr %3, align 8
  call void @llvm.lifetime.start.p0(i64 1, ptr %4) #18
  call void @llvm.lifetime.start.p0(i64 2, ptr %5) #18
  call void @llvm.lifetime.start.p0(i64 2, ptr %6) #18
  %8 = load ptr, ptr %3, align 8
  %9 = call i32 @tvb_captured_length(ptr noundef %8)
  %10 = icmp ult i32 %9, 5
  br i1 %10, label %11, label %12

11:                                               ; preds = %1
  store i1 false, ptr %2, align 1
  store i32 1, ptr %7, align 4
  br label %58

12:                                               ; preds = %1
  %13 = load ptr, ptr %3, align 8
  %14 = call zeroext i8 @tvb_get_uint8(ptr noundef %13, i32 noundef 0)
  store i8 %14, ptr %4, align 1
  %15 = load ptr, ptr %3, align 8
  %16 = call zeroext i16 @tvb_get_ntohs(ptr noundef %15, i32 noundef 1)
  store i16 %16, ptr %5, align 2
  %17 = load ptr, ptr %3, align 8
  %18 = call zeroext i16 @tvb_get_ntohs(ptr noundef %17, i32 noundef 3)
  store i16 %18, ptr %6, align 2
  %19 = load i8, ptr %4, align 1
  %20 = zext i8 %19 to i32
  %21 = icmp ne i32 %20, 22
  br i1 %21, label %22, label %27

22:                                               ; preds = %12
  %23 = load i8, ptr %4, align 1
  %24 = zext i8 %23 to i32
  %25 = icmp ne i32 %24, 23
  br i1 %25, label %26, label %27

26:                                               ; preds = %22
  store i1 false, ptr %2, align 1
  store i32 1, ptr %7, align 4
  br label %58

27:                                               ; preds = %22, %12
  %28 = load i16, ptr %5, align 2
  %29 = zext i16 %28 to i32
  %30 = icmp ne i32 %29, 768
  br i1 %30, label %31, label %48

31:                                               ; preds = %27
  %32 = load i16, ptr %5, align 2
  %33 = zext i16 %32 to i32
  %34 = icmp ne i32 %33, 769
  br i1 %34, label %35, label %48

35:                                               ; preds = %31
  %36 = load i16, ptr %5, align 2
  %37 = zext i16 %36 to i32
  %38 = icmp ne i32 %37, 770
  br i1 %38, label %39, label %48

39:                                               ; preds = %35
  %40 = load i16, ptr %5, align 2
  %41 = zext i16 %40 to i32
  %42 = icmp ne i32 %41, 771
  br i1 %42, label %43, label %48

43:                                               ; preds = %39
  %44 = load i16, ptr %5, align 2
  %45 = zext i16 %44 to i32
  %46 = icmp ne i32 %45, 257
  br i1 %46, label %47, label %48

47:                                               ; preds = %43
  store i1 false, ptr %2, align 1
  store i32 1, ptr %7, align 4
  br label %58

48:                                               ; preds = %43, %39, %35, %31, %27
  %49 = load i16, ptr %6, align 2
  %50 = zext i16 %49 to i32
  %51 = icmp eq i32 %50, 0
  br i1 %51, label %56, label %52

52:                                               ; preds = %48
  %53 = load i16, ptr %6, align 2
  %54 = zext i16 %53 to i32
  %55 = icmp sge i32 %54, 18432
  br i1 %55, label %56, label %57

56:                                               ; preds = %52, %48
  store i1 false, ptr %2, align 1
  store i32 1, ptr %7, align 4
  br label %58

57:                                               ; preds = %52
  store i1 true, ptr %2, align 1
  store i32 1, ptr %7, align 4
  br label %58

58:                                               ; preds = %57, %56, %47, %26, %11
  call void @llvm.lifetime.end.p0(i64 2, ptr %6) #18
  call void @llvm.lifetime.end.p0(i64 2, ptr %5) #18
  call void @llvm.lifetime.end.p0(i64 1, ptr %4) #18
  %59 = load i1, ptr %2, align 1
  ret i1 %59
}

; Function Attrs: null_pointer_is_valid sspstrong uwtable
define internal zeroext i1 @dissect_ssl_heur(ptr noundef %0, ptr noundef %1, ptr noundef %2, ptr noundef %3) #0 {
  %5 = alloca i1, align 1
  %6 = alloca ptr, align 8
  %7 = alloca ptr, align 8
  %8 = alloca ptr, align 8
  %9 = alloca ptr, align 8
  %10 = alloca ptr, align 8
  %11 = alloca i32, align 4
  store ptr %0, ptr %6, align 8
  store ptr %1, ptr %7, align 8
  store ptr %2, ptr %8, align 8
  store ptr %3, ptr %9, align 8
  call void @llvm.lifetime.start.p0(i64 8, ptr %10) #18
  %12 = load ptr, ptr %6, align 8
  %13 = call zeroext i1 @is_sslv3_or_tls(ptr noundef %12)
  br i1 %13, label %18, label %14

14:                                               ; preds = %4
  %15 = load ptr, ptr %6, align 8
  %16 = call zeroext i1 @is_sslv2_clienthello(ptr noundef %15)
  br i1 %16, label %18, label %17

17:                                               ; preds = %14
  store i1 false, ptr %5, align 1
  store i32 1, ptr %11, align 4
  br label %32

18:                                               ; preds = %14, %4
  %19 = load ptr, ptr %7, align 8
  %20 = call ptr @find_or_create_conversation(ptr noundef %19)
  store ptr %20, ptr %10, align 8
  %21 = load ptr, ptr %10, align 8
  %22 = load ptr, ptr %7, align 8
  %23 = getelementptr inbounds nuw %struct._packet_info, ptr %22, i32 0, i32 3
  %24 = load i32, ptr %23, align 4
  %25 = load ptr, ptr @tls_handle, align 8
  call void @conversation_set_dissector_from_frame_number(ptr noundef %21, i32 noundef %24, ptr noundef %25)
  %26 = load ptr, ptr %6, align 8
  %27 = load ptr, ptr %7, align 8
  %28 = load ptr, ptr %8, align 8
  %29 = load ptr, ptr %9, align 8
  %30 = call i32 @dissect_ssl(ptr noundef %26, ptr noundef %27, ptr noundef %28, ptr noundef %29)
  %31 = icmp sgt i32 %30, 0
  store i1 %31, ptr %5, align 1
  store i32 1, ptr %11, align 4
  br label %32

32:                                               ; preds = %18, %17
  call void @llvm.lifetime.end.p0(i64 8, ptr %10) #18
  %33 = load i1, ptr %5, align 1
  ret i1 %33
}