; Function Attrs: null_pointer_is_valid sspstrong uwtable
define internal zeroext i1 @dissect_ssl_heur(ptr noundef %0, ptr noundef %1, ptr noundef %2, ptr noundef captures(address_is_null) %3) #0 {
  %5 = tail call i32 @tvb_captured_length(ptr noundef %0)
  %6 = icmp ult i32 %5, 5
  br i1 %6, label %is_sslv3_or_tls.exit.thread, label %7

7:                                                ; preds = %4
  %8 = tail call zeroext i8 @tvb_get_uint8(ptr noundef %0, i32 noundef 0)
  %9 = tail call zeroext i16 @tvb_get_ntohs(ptr noundef %0, i32 noundef 1)
  %10 = tail call zeroext i16 @tvb_get_ntohs(ptr noundef %0, i32 noundef 3)
  %11 = add i8 %8, -24
  %or.cond.i = icmp ult i8 %11, -2
  br i1 %or.cond.i, label %is_sslv3_or_tls.exit.thread, label %12

12:                                               ; preds = %7
  switch i16 %9, label %is_sslv3_or_tls.exit.thread [
    i16 771, label %is_sslv3_or_tls.exit
    i16 770, label %is_sslv3_or_tls.exit
    i16 769, label %is_sslv3_or_tls.exit
    i16 768, label %is_sslv3_or_tls.exit
    i16 257, label %is_sslv3_or_tls.exit
  ]

is_sslv3_or_tls.exit:                             ; preds = %12, %12, %12, %12, %12
  %13 = add i16 %10, -1
  %or.cond17.i = icmp ult i16 %13, 18431
  br i1 %or.cond17.i, label %28, label %is_sslv3_or_tls.exit.thread

is_sslv3_or_tls.exit.thread:                      ; preds = %12, %7, %4, %is_sslv3_or_tls.exit
  %14 = tail call i32 @tvb_captured_length(ptr noundef %0)
  %15 = icmp ult i32 %14, 46
  br i1 %15, label %is_sslv2_clienthello.exit.thread, label %16

16:                                               ; preds = %is_sslv3_or_tls.exit.thread
  %17 = tail call zeroext i8 @tvb_get_uint8(ptr noundef %0, i32 noundef 0)
  %.not.i = icmp eq i8 %17, -128
  br i1 %.not.i, label %18, label %is_sslv2_clienthello.exit.thread

18:                                               ; preds = %16
  %19 = tail call zeroext i8 @tvb_get_uint8(ptr noundef %0, i32 noundef 2)
  %.not13.i = icmp eq i8 %19, 1
  br i1 %.not13.i, label %20, label %is_sslv2_clienthello.exit.thread

20:                                               ; preds = %18
  %21 = tail call zeroext i16 @tvb_get_ntohs(ptr noundef %0, i32 noundef 5)
  %22 = icmp ne i16 %21, 0
  %23 = urem i16 %21, 3
  %.not14.i = icmp eq i16 %23, 0
  %or.cond.i11 = and i1 %22, %.not14.i
  br i1 %or.cond.i11, label %24, label %is_sslv2_clienthello.exit.thread

24:                                               ; preds = %20
  %25 = tail call zeroext i16 @tvb_get_ntohs(ptr noundef %0, i32 noundef 7)
  %26 = and i16 %25, -17
  %or.cond.not.i = icmp eq i16 %26, 0
  br i1 %or.cond.not.i, label %is_sslv2_clienthello.exit, label %is_sslv2_clienthello.exit.thread

is_sslv2_clienthello.exit:                        ; preds = %24
  %27 = tail call zeroext i16 @tvb_get_ntohs(ptr noundef %0, i32 noundef 9)
  %.not15.i = icmp eq i16 %27, 32
  br i1 %.not15.i, label %28, label %is_sslv2_clienthello.exit.thread

28:                                               ; preds = %is_sslv2_clienthello.exit, %is_sslv3_or_tls.exit
  %29 = tail call ptr @find_or_create_conversation(ptr noundef %1)
  %30 = getelementptr inbounds nuw i8, ptr %1, i64 20
  %31 = load i32, ptr %30, align 4
  %32 = load ptr, ptr @tls_handle, align 8
  tail call void @conversation_set_dissector_from_frame_number(ptr noundef %29, i32 noundef %31, ptr noundef %32)
  %33 = tail call i32 @dissect_ssl(ptr noundef %0, ptr noundef %1, ptr noundef %2, ptr noundef %3)
  %34 = icmp sgt i32 %33, 0
  br label %is_sslv2_clienthello.exit.thread

is_sslv2_clienthello.exit.thread:                 ; preds = %24, %20, %18, %16, %is_sslv3_or_tls.exit.thread, %is_sslv2_clienthello.exit, %28
  %.0 = phi i1 [ %34, %28 ], [ false, %is_sslv2_clienthello.exit ], [ false, %is_sslv3_or_tls.exit.thread ], [ false, %16 ], [ false, %18 ], [ false, %20 ], [ false, %24 ]
  ret i1 %.0
}